; Function Attrs: mustprogress nofree norecurse nosync nounwind sspstrong willreturn memory(read, inaccessiblemem: none) uwtable
define hidden i32 @rb_shape_get_shape_id(i64 noundef %0) local_unnamed_addr #0 {
  %2 = icmp eq i64 %0, 0
  %3 = and i64 %0, 7
  %4 = icmp ne i64 %3, 0
  %5 = or i1 %2, %4
  br i1 %5, label %11, label %6

6:                                                ; preds = %1
  %7 = inttoptr i64 %0 to ptr
  %8 = load i64, ptr %7, align 8, !tbaa !24
  %9 = lshr i64 %8, 32
  %10 = trunc nuw i64 %9 to i32
  br label %11

11:                                               ; preds = %1, %6
  %.0 = phi i32 [ %10, %6 ], [ 1, %1 ]
  ret i32 %.0
}